; Function Attrs: nounwind sspstrong uwtable
define internal i64 @r_call_max(i64 noundef %0) #0 {
  %.pr.i = load i64, ptr @r_call_max.rbimpl_id, align 8, !tbaa !7
  %.not4.i = icmp eq i64 %.pr.i, 0
  br i1 %.not4.i, label %.lr.ph.i, label %rbimpl_intern_const.exit

.lr.ph.i:                                         ; preds = %1, %.lr.ph.i
  %2 = tail call i64 @rb_intern2(ptr noundef nonnull @.str.20, i64 noundef 3) #13
  store i64 %2, ptr @r_call_max.rbimpl_id, align 8, !tbaa !7
  %.not.i = icmp eq i64 %2, 0
  br i1 %.not.i, label %.lr.ph.i, label %rbimpl_intern_const.exit, !llvm.loop !14

rbimpl_intern_const.exit:                         ; preds = %.lr.ph.i, %1
  %.lcssa.i = phi i64 [ %.pr.i, %1 ], [ %2, %.lr.ph.i ]
  %3 = tail call i64 @rb_funcallv(i64 noundef %0, i64 noundef %.lcssa.i, i32 noundef 0, ptr noundef null) #13
  ret i64 %3
}